	.text
	.file	"nested_functions.c"
	.globl	TestFunction3           # -- Begin function TestFunction3
	.p2align	1
	.type	TestFunction3,@function
TestFunction3:                          # @TestFunction3
.Lfunc_begin0:
	.file	1 "/home/letizia/llvm_repo/llvm-project" "nested_functions.c"
	.loc	1 3 0                   # nested_functions.c:3:0
	.cfi_sections .debug_frame
	.cfi_startproc
# %bb.0:
	addi	sp, sp, -32
	.cfi_def_cfa_offset 32
	sd	ra, 24(sp)
	sd	s0, 16(sp)
	.cfi_offset ra, -8
	.cfi_offset s0, -16
	addi	s0, sp, 32
	.cfi_def_cfa s0, 0
	add	a2, zero, a1
	add	a3, zero, a0
	sw	a0, -20(s0)
	sw	a1, -24(s0)
.Ltmp0:
	.loc	1 5 14 prologue_end     # nested_functions.c:5:14
	lw	a0, -20(s0)
	.loc	1 5 16 is_stmt 0        # nested_functions.c:5:16
	lw	a1, -24(s0)
	.loc	1 5 15                  # nested_functions.c:5:15
	xor	a0, a0, a1
	.loc	1 5 6                   # nested_functions.c:5:6
	sw	a0, -28(s0)
	.loc	1 6 14 is_stmt 1        # nested_functions.c:6:14
	lw	a0, -28(s0)
	.loc	1 6 20 is_stmt 0        # nested_functions.c:6:20
	addi	a0, a0, -37
	.loc	1 6 6                   # nested_functions.c:6:6
	sw	a0, -32(s0)
	.loc	1 8 9 is_stmt 1         # nested_functions.c:8:9
	lw	a0, -32(s0)
	.loc	1 8 2 is_stmt 0         # nested_functions.c:8:2
	ld	s0, 16(sp)
	ld	ra, 24(sp)
	addi	sp, sp, 32
	ret
.Ltmp1:
.Lfunc_end0:
	.size	TestFunction3, .Lfunc_end0-TestFunction3
	.cfi_endproc
                                        # -- End function
	.globl	TestFunction2           # -- Begin function TestFunction2
	.p2align	1
	.type	TestFunction2,@function
TestFunction2:                          # @TestFunction2
.Lfunc_begin1:
	.loc	1 11 0 is_stmt 1        # nested_functions.c:11:0
	.cfi_startproc
# %bb.0:
	addi	sp, sp, -48
	.cfi_def_cfa_offset 48
	sd	ra, 40(sp)
	sd	s0, 32(sp)
	.cfi_offset ra, -8
	.cfi_offset s0, -16
	addi	s0, sp, 48
	.cfi_def_cfa s0, 0
	add	a2, zero, a1
	add	a3, zero, a0
	sw	a0, -20(s0)
	sw	a1, -24(s0)
.Ltmp2:
	.loc	1 13 26 prologue_end    # nested_functions.c:13:26
	lw	a0, -20(s0)
	.loc	1 13 29 is_stmt 0       # nested_functions.c:13:29
	lw	a1, -24(s0)
	.loc	1 13 12                 # nested_functions.c:13:12
	sd	a2, -40(s0)
	sd	a3, -48(s0)
	call	TestFunction3
	.loc	1 13 6                  # nested_functions.c:13:6
	sw	a0, -28(s0)
	.loc	1 14 14 is_stmt 1       # nested_functions.c:14:14
	lw	a0, -20(s0)
	.loc	1 14 18 is_stmt 0       # nested_functions.c:14:18
	lw	a1, -28(s0)
	.loc	1 14 16                 # nested_functions.c:14:16
	mul	a0, a0, a1
	.loc	1 14 6                  # nested_functions.c:14:6
	sw	a0, -32(s0)
	.loc	1 16 9 is_stmt 1        # nested_functions.c:16:9
	lw	a0, -32(s0)
	.loc	1 16 2 is_stmt 0        # nested_functions.c:16:2
	ld	s0, 32(sp)
	ld	ra, 40(sp)
	addi	sp, sp, 48
	ret
.Ltmp3:
.Lfunc_end1:
	.size	TestFunction2, .Lfunc_end1-TestFunction2
	.cfi_endproc
                                        # -- End function
	.globl	TestFunction1           # -- Begin function TestFunction1
	.p2align	1
	.type	TestFunction1,@function
TestFunction1:                          # @TestFunction1
.Lfunc_begin2:
	.loc	1 19 0 is_stmt 1        # nested_functions.c:19:0
	.cfi_startproc
# %bb.0:
	addi	sp, sp, -48
	.cfi_def_cfa_offset 48
	sd	ra, 40(sp)
	sd	s0, 32(sp)
	.cfi_offset ra, -8
	.cfi_offset s0, -16
	addi	s0, sp, 48
	.cfi_def_cfa s0, 0
	add	a2, zero, a1
	add	a3, zero, a0
	sw	a0, -20(s0)
	sw	a1, -24(s0)
.Ltmp4:
	.loc	1 21 27 prologue_end    # nested_functions.c:21:27
	lw	a0, -20(s0)
	.loc	1 21 30 is_stmt 0       # nested_functions.c:21:30
	lw	a1, -24(s0)
	.loc	1 21 13                 # nested_functions.c:21:13
	sd	a2, -40(s0)
	sd	a3, -48(s0)
	call	TestFunction2
	.loc	1 21 6                  # nested_functions.c:21:6
	sw	a0, -28(s0)
	.loc	1 22 14 is_stmt 1       # nested_functions.c:22:14
	lw	a0, -28(s0)
	.loc	1 22 21 is_stmt 0       # nested_functions.c:22:21
	lw	a1, -24(s0)
	.loc	1 22 19                 # nested_functions.c:22:19
	add	a0, a0, a1
	.loc	1 22 6                  # nested_functions.c:22:6
	sw	a0, -32(s0)
	.loc	1 24 9 is_stmt 1        # nested_functions.c:24:9
	lw	a0, -32(s0)
	.loc	1 24 2 is_stmt 0        # nested_functions.c:24:2
	ld	s0, 32(sp)
	ld	ra, 40(sp)
	addi	sp, sp, 48
	ret
.Ltmp5:
.Lfunc_end2:
	.size	TestFunction1, .Lfunc_end2-TestFunction1
	.cfi_endproc
                                        # -- End function
	.globl	main                    # -- Begin function main
	.p2align	1
	.type	main,@function
main:                                   # @main
.Lfunc_begin3:
	.loc	1 28 0 is_stmt 1        # nested_functions.c:28:0
	.cfi_startproc
# %bb.0:
	addi	sp, sp, -48
	.cfi_def_cfa_offset 48
	sd	ra, 40(sp)
	sd	s0, 32(sp)
	.cfi_offset ra, -8
	.cfi_offset s0, -16
	addi	s0, sp, 48
	.cfi_def_cfa s0, 0
	mv	a0, zero
	sw	a0, -20(s0)
.Ltmp6:
	.loc	1 29 6 prologue_end     # nested_functions.c:29:6
	sw	a0, -24(s0)
	.loc	1 30 6                  # nested_functions.c:30:6
	sw	a0, -28(s0)
.Ltmp7:
	.loc	1 32 10                 # nested_functions.c:32:10
	sw	a0, -32(s0)
	.loc	1 32 6 is_stmt 0        # nested_functions.c:32:6
	j	.LBB3_1
.LBB3_1:                                # =>This Inner Loop Header: Depth=1
.Ltmp8:
	.loc	1 32 15                 # nested_functions.c:32:15
	lw	a0, -32(s0)
	addi	a1, zero, 3
.Ltmp9:
	.loc	1 32 2                  # nested_functions.c:32:2
	blt	a1, a0, .LBB3_6
	j	.LBB3_2
.LBB3_2:                                #   in Loop: Header=BB3_1 Depth=1
.Ltmp10:
	.loc	1 33 3 is_stmt 1        # nested_functions.c:33:3
	lw	a0, -24(s0)
	addi	a0, a0, 1
	sw	a0, -24(s0)
	.loc	1 34 3                  # nested_functions.c:34:3
	lw	a0, -28(s0)
	addi	a0, a0, 1
	sw	a0, -28(s0)
.Ltmp11:
	.loc	1 36 5                  # nested_functions.c:36:5
	lw	a0, -32(s0)
	addi	a1, zero, 2
.Ltmp12:
	.loc	1 36 5 is_stmt 0        # nested_functions.c:36:5
	blt	a1, a0, .LBB3_4
	j	.LBB3_3
.LBB3_3:                                #   in Loop: Header=BB3_1 Depth=1
.Ltmp13:
	.loc	1 37 26 is_stmt 1       # nested_functions.c:37:26
	lw	a0, -24(s0)
	.loc	1 37 29 is_stmt 0       # nested_functions.c:37:29
	lw	a1, -28(s0)
	.loc	1 37 12                 # nested_functions.c:37:12
	call	TestFunction1
	.loc	1 37 6                  # nested_functions.c:37:6
	sw	a0, -36(s0)
	.loc	1 38 2 is_stmt 1        # nested_functions.c:38:2
	j	.LBB3_4
.Ltmp14:
.LBB3_4:                                #   in Loop: Header=BB3_1 Depth=1
	.loc	1 39 2                  # nested_functions.c:39:2
	j	.LBB3_5
.Ltmp15:
.LBB3_5:                                #   in Loop: Header=BB3_1 Depth=1
	.loc	1 32 21                 # nested_functions.c:32:21
	lw	a0, -32(s0)
	addi	a0, a0, 1
	sw	a0, -32(s0)
	.loc	1 32 2 is_stmt 0        # nested_functions.c:32:2
	j	.LBB3_1
.Ltmp16:
.LBB3_6:
	.loc	1 0 2                   # nested_functions.c:0:2
	mv	a0, zero
	.loc	1 41 2 is_stmt 1        # nested_functions.c:41:2
	ld	s0, 32(sp)
	ld	ra, 40(sp)
	addi	sp, sp, 48
	ret
.Ltmp17:
.Lfunc_end3:
	.size	main, .Lfunc_end3-main
	.cfi_endproc
                                        # -- End function
	.section	".note.GNU-stack","",@progbits
	.addrsig
	.addrsig_sym TestFunction3
	.addrsig_sym TestFunction2
	.addrsig_sym TestFunction1